target datalayout = "e-m:e-p270:32:32-p271:32:32-p272:64:64-i64:64-i128:128-f80:128-n8:16:32:64-S128"
target triple = "x86_64-pc-linux-gnu"

%struct.EVP_AES_XTS_CTX = type { %union.anon.3, %union.anon.3, %struct.xts128_context, ptr }
%union.anon.3 = type { double, [240 x i8] }
%struct.xts128_context = type { ptr, ptr, ptr, ptr }

; Function Attrs: nounwind uwtable
define internal i32 @aes_xts_ctrl(ptr noundef %0, i32 noundef %1, i32 noundef %2, ptr noundef %3) #0 {
  %5 = alloca i32, align 4
  %6 = alloca ptr, align 8
  %7 = alloca i32, align 4
  %8 = alloca i32, align 4
  %9 = alloca ptr, align 8
  %10 = alloca ptr, align 8
  %11 = alloca ptr, align 8
  %12 = alloca ptr, align 8
  %13 = alloca i32, align 4
  store ptr %0, ptr %6, align 8, !tbaa !7
  store i32 %1, ptr %7, align 4, !tbaa !3
  store i32 %2, ptr %8, align 4, !tbaa !3
  store ptr %3, ptr %9, align 8, !tbaa !12
  call void @llvm.lifetime.start.p0(i64 8, ptr %10) #4
  %14 = load ptr, ptr %6, align 8, !tbaa !7
  %15 = call ptr @EVP_CIPHER_CTX_get_cipher_data(ptr noundef %14)
  store ptr %15, ptr %10, align 8, !tbaa !12
  %16 = load i32, ptr %7, align 4, !tbaa !3
  %17 = icmp eq i32 %16, 8
  br i1 %17, label %18, label %65

18:                                               ; preds = %4
  call void @llvm.lifetime.start.p0(i64 8, ptr %11) #4
  %19 = load ptr, ptr %9, align 8, !tbaa !12
  store ptr %19, ptr %11, align 8, !tbaa !7
  call void @llvm.lifetime.start.p0(i64 8, ptr %12) #4
  %20 = load ptr, ptr %11, align 8, !tbaa !7
  %21 = call ptr @EVP_CIPHER_CTX_get_cipher_data(ptr noundef %20)
  store ptr %21, ptr %12, align 8, !tbaa !12
  %22 = load ptr, ptr %10, align 8, !tbaa !12
  %23 = getelementptr inbounds nuw %struct.EVP_AES_XTS_CTX, ptr %22, i32 0, i32 2
  %24 = getelementptr inbounds nuw %struct.xts128_context, ptr %23, i32 0, i32 0
  %25 = load ptr, ptr %24, align 8, !tbaa !47
  %26 = icmp ne ptr %25, null
  br i1 %26, label %27, label %42

27:                                               ; preds = %18
  %28 = load ptr, ptr %10, align 8, !tbaa !12
  %29 = getelementptr inbounds nuw %struct.EVP_AES_XTS_CTX, ptr %28, i32 0, i32 2
  %30 = getelementptr inbounds nuw %struct.xts128_context, ptr %29, i32 0, i32 0
  %31 = load ptr, ptr %30, align 8, !tbaa !47
  %32 = load ptr, ptr %10, align 8, !tbaa !12
  %33 = getelementptr inbounds nuw %struct.EVP_AES_XTS_CTX, ptr %32, i32 0, i32 0
  %34 = icmp ne ptr %31, %33
  br i1 %34, label %35, label %36

35:                                               ; preds = %27
  store i32 0, ptr %5, align 4
  store i32 1, ptr %13, align 4
  br label %64

36:                                               ; preds = %27
  %37 = load ptr, ptr %12, align 8, !tbaa !12
  %38 = getelementptr inbounds nuw %struct.EVP_AES_XTS_CTX, ptr %37, i32 0, i32 0
  %39 = load ptr, ptr %12, align 8, !tbaa !12
  %40 = getelementptr inbounds nuw %struct.EVP_AES_XTS_CTX, ptr %39, i32 0, i32 2
  %41 = getelementptr inbounds nuw %struct.xts128_context, ptr %40, i32 0, i32 0
  store ptr %38, ptr %41, align 8, !tbaa !47
  br label %42

42:                                               ; preds = %36, %18
  %43 = load ptr, ptr %10, align 8, !tbaa !12
  %44 = getelementptr inbounds nuw %struct.EVP_AES_XTS_CTX, ptr %43, i32 0, i32 2
  %45 = getelementptr inbounds nuw %struct.xts128_context, ptr %44, i32 0, i32 1
  %46 = load ptr, ptr %45, align 8, !tbaa !48
  %47 = icmp ne ptr %46, null
  br i1 %47, label %48, label %63

48:                                               ; preds = %42
  %49 = load ptr, ptr %10, align 8, !tbaa !12
  %50 = getelementptr inbounds nuw %struct.EVP_AES_XTS_CTX, ptr %49, i32 0, i32 2
  %51 = getelementptr inbounds nuw %struct.xts128_context, ptr %50, i32 0, i32 1
  %52 = load ptr, ptr %51, align 8, !tbaa !48
  %53 = load ptr, ptr %10, align 8, !tbaa !12
  %54 = getelementptr inbounds nuw %struct.EVP_AES_XTS_CTX, ptr %53, i32 0, i32 1
  %55 = icmp ne ptr %52, %54
  br i1 %55, label %56, label %57

56:                                               ; preds = %48
  store i32 0, ptr %5, align 4
  store i32 1, ptr %13, align 4
  br label %64

57:                                               ; preds = %48
  %58 = load ptr, ptr %12, align 8, !tbaa !12
  %59 = getelementptr inbounds nuw %struct.EVP_AES_XTS_CTX, ptr %58, i32 0, i32 1
  %60 = load ptr, ptr %12, align 8, !tbaa !12
  %61 = getelementptr inbounds nuw %struct.EVP_AES_XTS_CTX, ptr %60, i32 0, i32 2
  %62 = getelementptr inbounds nuw %struct.xts128_context, ptr %61, i32 0, i32 1
  store ptr %59, ptr %62, align 8, !tbaa !48
  br label %63

63:                                               ; preds = %57, %42
  store i32 1, ptr %5, align 4
  store i32 1, ptr %13, align 4
  br label %64

64:                                               ; preds = %63, %56, %35
  call void @llvm.lifetime.end.p0(i64 8, ptr %12) #4
  call void @llvm.lifetime.end.p0(i64 8, ptr %11) #4
  br label %77

65:                                               ; preds = %4
  %66 = load i32, ptr %7, align 4, !tbaa !3
  %67 = icmp ne i32 %66, 0
  br i1 %67, label %68, label %69

68:                                               ; preds = %65
  store i32 -1, ptr %5, align 4
  store i32 1, ptr %13, align 4
  br label %77

69:                                               ; preds = %65
  br label %70

70:                                               ; preds = %69
  %71 = load ptr, ptr %10, align 8, !tbaa !12
  %72 = getelementptr inbounds nuw %struct.EVP_AES_XTS_CTX, ptr %71, i32 0, i32 2
  %73 = getelementptr inbounds nuw %struct.xts128_context, ptr %72, i32 0, i32 0
  store ptr null, ptr %73, align 8, !tbaa !47
  %74 = load ptr, ptr %10, align 8, !tbaa !12
  %75 = getelementptr inbounds nuw %struct.EVP_AES_XTS_CTX, ptr %74, i32 0, i32 2
  %76 = getelementptr inbounds nuw %struct.xts128_context, ptr %75, i32 0, i32 1
  store ptr null, ptr %76, align 8, !tbaa !48
  store i32 1, ptr %5, align 4
  store i32 1, ptr %13, align 4
  br label %77

77:                                               ; preds = %70, %68, %64
  call void @llvm.lifetime.end.p0(i64 8, ptr %10) #4
  %78 = load i32, ptr %5, align 4
  ret i32 %78
}