; Function Attrs: nounwind uwtable
define internal range(i32 -1, 2) i32 @aes_xts_ctrl(ptr noundef %0, i32 noundef %1, i32 %2, ptr noundef %3) #2 {
  %5 = tail call ptr @EVP_CIPHER_CTX_get_cipher_data(ptr noundef %0) #8
  switch i32 %1, label %23 [
    i32 8, label %6
    i32 0, label %21
  ]

6:                                                ; preds = %4
  %7 = tail call ptr @EVP_CIPHER_CTX_get_cipher_data(ptr noundef %3) #8
  %8 = getelementptr inbounds nuw i8, ptr %5, i64 496
  %9 = load ptr, ptr %8, align 8, !tbaa !42
  %.not20 = icmp eq ptr %9, null
  br i1 %.not20, label %13, label %10

10:                                               ; preds = %6
  %.not21 = icmp eq ptr %9, %5
  br i1 %.not21, label %11, label %23

11:                                               ; preds = %10
  %12 = getelementptr inbounds nuw i8, ptr %7, i64 496
  store ptr %7, ptr %12, align 8, !tbaa !42
  br label %13

13:                                               ; preds = %11, %6
  %14 = getelementptr inbounds nuw i8, ptr %5, i64 504
  %15 = load ptr, ptr %14, align 8, !tbaa !43
  %.not22 = icmp eq ptr %15, null
  br i1 %.not22, label %23, label %16

16:                                               ; preds = %13
  %17 = getelementptr inbounds nuw i8, ptr %5, i64 248
  %.not23 = icmp eq ptr %15, %17
  br i1 %.not23, label %18, label %23

18:                                               ; preds = %16
  %19 = getelementptr inbounds nuw i8, ptr %7, i64 248
  %20 = getelementptr inbounds nuw i8, ptr %7, i64 504
  store ptr %19, ptr %20, align 8, !tbaa !43
  br label %23

21:                                               ; preds = %4
  %22 = getelementptr inbounds nuw i8, ptr %5, i64 496
  tail call void @llvm.memset.p0.i64(ptr noundef nonnull align 8 dereferenceable(16) %22, i8 0, i64 16, i1 false)
  br label %23

23:                                               ; preds = %4, %10, %16, %18, %13, %21
  %.1 = phi i32 [ 1, %21 ], [ 0, %10 ], [ 0, %16 ], [ 1, %18 ], [ 1, %13 ], [ -1, %4 ]
  ret i32 %.1
}